target datalayout = "e-m:e-p270:32:32-p271:32:32-p272:64:64-i64:64-i128:128-f80:128-n8:16:32:64-S128"
target triple = "x86_64-pc-linux-gnu"

%struct._zval_struct = type { %union._zend_value, %union.anon.3, %union.anon.6 }
%union._zend_value = type { i64 }
%union.anon.3 = type { i32 }
%union.anon.6 = type { i32 }
%struct._zend_refcounted_h = type { i32, %union.anon.1 }
%union.anon.1 = type { i32 }
%struct._pdo_stmt_t = type { ptr, ptr, [6 x i8], i16, ptr, ptr, ptr, ptr, i32, i32, %union.anon, ptr, ptr, ptr, i64, ptr, ptr, ptr, %struct._zend_object }
%union.anon = type { %struct.anon.0 }
%struct.anon.0 = type { %struct._zend_fcall_info_cache }
%struct._zend_fcall_info_cache = type { ptr, ptr, ptr, ptr, ptr }
%struct._zend_object = type { %struct._zend_refcounted_h, i32, i32, ptr, ptr, ptr, [1 x %struct._zval_struct] }
%struct.pdo_stmt_methods = type { ptr, ptr, ptr, ptr, ptr, ptr, ptr, ptr, ptr, ptr, ptr }
%struct._pdo_dbh_t = type { ptr, ptr, ptr, ptr, i32, ptr, i64, [6 x i8], i32, i32, i32, ptr, i64, i32, [2 x ptr], ptr, ptr, %struct._zval_struct, ptr, ptr, i32 }
%struct.pdo_column_data = type { ptr, i64, i64 }
%struct.pdo_bound_param_data = type { %struct._zval_struct, %struct._zval_struct, i64, ptr, i64, ptr, ptr, i32, i32 }
%struct._zend_string = type { %struct._zend_refcounted_h, i64, i64, [1 x i8] }

; Function Attrs: alwaysinline nounwind uwtable
define internal i32 @zend_gc_delref(ptr noundef %0) #3 {
  %2 = alloca ptr, align 8
  store ptr %0, ptr %2, align 8, !tbaa !109
  %3 = load ptr, ptr %2, align 8, !tbaa !109
  %4 = getelementptr inbounds nuw %struct._zend_refcounted_h, ptr %3, i32 0, i32 0
  %5 = load i32, ptr %4, align 4, !tbaa !111
  %6 = icmp ugt i32 %5, 0
  call void @llvm.assume(i1 %6)
  br label %7

7:                                                ; preds = %1
  br label %8

8:                                                ; preds = %7
  %9 = load ptr, ptr %2, align 8, !tbaa !109
  %10 = getelementptr inbounds nuw %struct._zend_refcounted_h, ptr %9, i32 0, i32 0
  %11 = load i32, ptr %10, align 4, !tbaa !111
  %12 = add i32 %11, -1
  store i32 %12, ptr %10, align 4, !tbaa !111
  ret i32 %12
}

; Function Attrs: alwaysinline nounwind uwtable
define internal i32 @zval_gc_flags(i32 noundef %0) #3 {
  %2 = alloca i32, align 4
  store i32 %0, ptr %2, align 4, !tbaa !26
  %3 = load i32, ptr %2, align 4, !tbaa !26
  %4 = lshr i32 %3, 0
  %5 = and i32 %4, 1008
  ret i32 %5
}

; Function Attrs: alwaysinline nounwind uwtable
define internal ptr @zend_hash_find_ptr(ptr noundef %0, ptr noundef %1) #3 {
  %3 = alloca ptr, align 8
  %4 = alloca ptr, align 8
  %5 = alloca ptr, align 8
  %6 = alloca ptr, align 8
  %7 = alloca i32, align 4
  store ptr %0, ptr %4, align 8, !tbaa !46
  store ptr %1, ptr %5, align 8, !tbaa !39
  call void @llvm.lifetime.start.p0(i64 8, ptr %6) #14
  %8 = load ptr, ptr %4, align 8, !tbaa !46
  %9 = load ptr, ptr %5, align 8, !tbaa !39
  %10 = call ptr @zend_hash_find(ptr noundef %8, ptr noundef %9)
  store ptr %10, ptr %6, align 8, !tbaa !47
  %11 = load ptr, ptr %6, align 8, !tbaa !47
  %12 = icmp ne ptr %11, null
  br i1 %12, label %13, label %21

13:                                               ; preds = %2
  %14 = load ptr, ptr %6, align 8, !tbaa !47
  %15 = getelementptr inbounds nuw %struct._zval_struct, ptr %14, i32 0, i32 0
  %16 = load ptr, ptr %15, align 8, !tbaa !45
  %17 = icmp ne ptr %16, null
  call void @llvm.assume(i1 %17)
  %18 = load ptr, ptr %6, align 8, !tbaa !47
  %19 = getelementptr inbounds nuw %struct._zval_struct, ptr %18, i32 0, i32 0
  %20 = load ptr, ptr %19, align 8, !tbaa !45
  store ptr %20, ptr %3, align 8
  store i32 1, ptr %7, align 4
  br label %22

21:                                               ; preds = %2
  store ptr null, ptr %3, align 8
  store i32 1, ptr %7, align 4
  br label %22

22:                                               ; preds = %21, %13
  call void @llvm.lifetime.end.p0(i64 8, ptr %6) #14
  %23 = load ptr, ptr %3, align 8
  ret ptr %23
}

; Function Attrs: alwaysinline nounwind uwtable
define internal ptr @zend_string_toupper(ptr noundef %0) #3 {
  %2 = alloca ptr, align 8
  store ptr %0, ptr %2, align 8, !tbaa !39
  %3 = load ptr, ptr %2, align 8, !tbaa !39
  %4 = call ptr @zend_string_toupper_ex(ptr noundef %3, i1 noundef zeroext false)
  ret ptr %4
}

; Function Attrs: alwaysinline nounwind uwtable
define internal void @zend_string_release(ptr noundef %0) #3 {
  %2 = alloca ptr, align 8
  store ptr %0, ptr %2, align 8, !tbaa !39
  %3 = load ptr, ptr %2, align 8, !tbaa !39
  %4 = getelementptr inbounds nuw %struct._zend_string, ptr %3, i32 0, i32 0
  %5 = getelementptr inbounds nuw %struct._zend_refcounted_h, ptr %4, i32 0, i32 1
  %6 = load i32, ptr %5, align 4, !tbaa !45
  %7 = call i32 @zval_gc_flags(i32 noundef %6)
  %8 = and i32 %7, 64
  %9 = icmp ne i32 %8, 0
  br i1 %9, label %29, label %10

10:                                               ; preds = %1
  %11 = load ptr, ptr %2, align 8, !tbaa !39
  %12 = getelementptr inbounds nuw %struct._zend_string, ptr %11, i32 0, i32 0
  %13 = call i32 @zend_gc_delref(ptr noundef %12)
  %14 = icmp eq i32 %13, 0
  br i1 %14, label %15, label %28

15:                                               ; preds = %10
  %16 = load ptr, ptr %2, align 8, !tbaa !39
  %17 = getelementptr inbounds nuw %struct._zend_string, ptr %16, i32 0, i32 0
  %18 = getelementptr inbounds nuw %struct._zend_refcounted_h, ptr %17, i32 0, i32 1
  %19 = load i32, ptr %18, align 4, !tbaa !45
  %20 = call i32 @zval_gc_flags(i32 noundef %19)
  %21 = and i32 %20, 128
  %22 = icmp ne i32 %21, 0
  br i1 %22, label %23, label %25

23:                                               ; preds = %15
  %24 = load ptr, ptr %2, align 8, !tbaa !39
  call void @free(ptr noundef %24) #14
  br label %27

25:                                               ; preds = %15
  %26 = load ptr, ptr %2, align 8, !tbaa !39
  call void @_efree(ptr noundef %26)
  br label %27

27:                                               ; preds = %25, %23
  br label %28

28:                                               ; preds = %27, %10
  br label %29

29:                                               ; preds = %28, %1
  ret void
}

; Function Attrs: alwaysinline nounwind uwtable
define internal ptr @zend_string_tolower(ptr noundef %0) #3 {
  %2 = alloca ptr, align 8
  store ptr %0, ptr %2, align 8, !tbaa !39
  %3 = load ptr, ptr %2, align 8, !tbaa !39
  %4 = call ptr @zend_string_tolower_ex(ptr noundef %3, i1 noundef zeroext false)
  ret ptr %4
}

; Function Attrs: nounwind uwtable
define hidden zeroext i1 @pdo_stmt_describe_columns(ptr noundef %0) #0 {
  %2 = alloca i1, align 1
  %3 = alloca ptr, align 8
  %4 = alloca i32, align 4
  %5 = alloca i32, align 4
  %6 = alloca ptr, align 8
  %7 = alloca ptr, align 8
  store ptr %0, ptr %3, align 8, !tbaa !4
  call void @llvm.lifetime.start.p0(i64 4, ptr %4) #14
  %8 = load ptr, ptr %3, align 8, !tbaa !4
  %9 = getelementptr inbounds nuw %struct._pdo_stmt_t, ptr %8, i32 0, i32 8
  %10 = load i32, ptr %9, align 8, !tbaa !9
  %11 = sext i32 %10 to i64
  %12 = call noalias ptr @_ecalloc(i64 noundef %11, i64 noundef 24) #15
  %13 = load ptr, ptr %3, align 8, !tbaa !4
  %14 = getelementptr inbounds nuw %struct._pdo_stmt_t, ptr %13, i32 0, i32 7
  store ptr %12, ptr %14, align 8, !tbaa !25
  store i32 0, ptr %4, align 4, !tbaa !26
  br label %15

15:                                               ; preds = %115, %1
  %16 = load i32, ptr %4, align 4, !tbaa !26
  %17 = load ptr, ptr %3, align 8, !tbaa !4
  %18 = getelementptr inbounds nuw %struct._pdo_stmt_t, ptr %17, i32 0, i32 8
  %19 = load i32, ptr %18, align 8, !tbaa !9
  %20 = icmp slt i32 %16, %19
  br i1 %20, label %21, label %118

21:                                               ; preds = %15
  %22 = load ptr, ptr %3, align 8, !tbaa !4
  %23 = getelementptr inbounds nuw %struct._pdo_stmt_t, ptr %22, i32 0, i32 0
  %24 = load ptr, ptr %23, align 8, !tbaa !27
  %25 = getelementptr inbounds nuw %struct.pdo_stmt_methods, ptr %24, i32 0, i32 3
  %26 = load ptr, ptr %25, align 8, !tbaa !28
  %27 = load ptr, ptr %3, align 8, !tbaa !4
  %28 = load i32, ptr %4, align 4, !tbaa !26
  %29 = call i32 %26(ptr noundef %27, i32 noundef %28)
  %30 = icmp ne i32 %29, 0
  br i1 %30, label %32, label %31

31:                                               ; preds = %21
  store i1 false, ptr %2, align 1
  store i32 1, ptr %5, align 4
  br label %119

32:                                               ; preds = %21
  %33 = load ptr, ptr %3, align 8, !tbaa !4
  %34 = getelementptr inbounds nuw %struct._pdo_stmt_t, ptr %33, i32 0, i32 12
  %35 = load ptr, ptr %34, align 8, !tbaa !30
  %36 = getelementptr inbounds nuw %struct._pdo_dbh_t, ptr %35, i32 0, i32 9
  %37 = load i32, ptr %36, align 4, !tbaa !31
  %38 = load ptr, ptr %3, align 8, !tbaa !4
  %39 = getelementptr inbounds nuw %struct._pdo_stmt_t, ptr %38, i32 0, i32 12
  %40 = load ptr, ptr %39, align 8, !tbaa !30
  %41 = getelementptr inbounds nuw %struct._pdo_dbh_t, ptr %40, i32 0, i32 10
  %42 = load i32, ptr %41, align 8, !tbaa !36
  %43 = icmp ne i32 %37, %42
  br i1 %43, label %44, label %89

44:                                               ; preds = %32
  %45 = load ptr, ptr %3, align 8, !tbaa !4
  %46 = getelementptr inbounds nuw %struct._pdo_stmt_t, ptr %45, i32 0, i32 12
  %47 = load ptr, ptr %46, align 8, !tbaa !30
  %48 = getelementptr inbounds nuw %struct._pdo_dbh_t, ptr %47, i32 0, i32 10
  %49 = load i32, ptr %48, align 8, !tbaa !36
  %50 = icmp ne i32 %49, 0
  br i1 %50, label %51, label %89

51:                                               ; preds = %44
  call void @llvm.lifetime.start.p0(i64 8, ptr %6) #14
  %52 = load ptr, ptr %3, align 8, !tbaa !4
  %53 = getelementptr inbounds nuw %struct._pdo_stmt_t, ptr %52, i32 0, i32 7
  %54 = load ptr, ptr %53, align 8, !tbaa !25
  %55 = load i32, ptr %4, align 4, !tbaa !26
  %56 = sext i32 %55 to i64
  %57 = getelementptr inbounds %struct.pdo_column_data, ptr %54, i64 %56
  %58 = getelementptr inbounds nuw %struct.pdo_column_data, ptr %57, i32 0, i32 0
  %59 = load ptr, ptr %58, align 8, !tbaa !37
  store ptr %59, ptr %6, align 8, !tbaa !39
  %60 = load ptr, ptr %3, align 8, !tbaa !4
  %61 = getelementptr inbounds nuw %struct._pdo_stmt_t, ptr %60, i32 0, i32 12
  %62 = load ptr, ptr %61, align 8, !tbaa !30
  %63 = getelementptr inbounds nuw %struct._pdo_dbh_t, ptr %62, i32 0, i32 10
  %64 = load i32, ptr %63, align 8, !tbaa !36
  switch i32 %64, label %87 [
    i32 2, label %65
    i32 1, label %76
  ]

65:                                               ; preds = %51
  %66 = load ptr, ptr %6, align 8, !tbaa !39
  %67 = call ptr @zend_string_tolower(ptr noundef %66)
  %68 = load ptr, ptr %3, align 8, !tbaa !4
  %69 = getelementptr inbounds nuw %struct._pdo_stmt_t, ptr %68, i32 0, i32 7
  %70 = load ptr, ptr %69, align 8, !tbaa !25
  %71 = load i32, ptr %4, align 4, !tbaa !26
  %72 = sext i32 %71 to i64
  %73 = getelementptr inbounds %struct.pdo_column_data, ptr %70, i64 %72
  %74 = getelementptr inbounds nuw %struct.pdo_column_data, ptr %73, i32 0, i32 0
  store ptr %67, ptr %74, align 8, !tbaa !37
  %75 = load ptr, ptr %6, align 8, !tbaa !39
  call void @zend_string_release(ptr noundef %75)
  br label %88

76:                                               ; preds = %51
  %77 = load ptr, ptr %6, align 8, !tbaa !39
  %78 = call ptr @zend_string_toupper(ptr noundef %77)
  %79 = load ptr, ptr %3, align 8, !tbaa !4
  %80 = getelementptr inbounds nuw %struct._pdo_stmt_t, ptr %79, i32 0, i32 7
  %81 = load ptr, ptr %80, align 8, !tbaa !25
  %82 = load i32, ptr %4, align 4, !tbaa !26
  %83 = sext i32 %82 to i64
  %84 = getelementptr inbounds %struct.pdo_column_data, ptr %81, i64 %83
  %85 = getelementptr inbounds nuw %struct.pdo_column_data, ptr %84, i32 0, i32 0
  store ptr %78, ptr %85, align 8, !tbaa !37
  %86 = load ptr, ptr %6, align 8, !tbaa !39
  call void @zend_string_release(ptr noundef %86)
  br label %88

87:                                               ; preds = %51
  unreachable

88:                                               ; preds = %76, %65
  call void @llvm.lifetime.end.p0(i64 8, ptr %6) #14
  br label %89

89:                                               ; preds = %88, %44, %32
  %90 = load ptr, ptr %3, align 8, !tbaa !4
  %91 = getelementptr inbounds nuw %struct._pdo_stmt_t, ptr %90, i32 0, i32 6
  %92 = load ptr, ptr %91, align 8, !tbaa !40
  %93 = icmp ne ptr %92, null
  br i1 %93, label %94, label %114

94:                                               ; preds = %89
  call void @llvm.lifetime.start.p0(i64 8, ptr %7) #14
  %95 = load ptr, ptr %3, align 8, !tbaa !4
  %96 = getelementptr inbounds nuw %struct._pdo_stmt_t, ptr %95, i32 0, i32 6
  %97 = load ptr, ptr %96, align 8, !tbaa !40
  %98 = load ptr, ptr %3, align 8, !tbaa !4
  %99 = getelementptr inbounds nuw %struct._pdo_stmt_t, ptr %98, i32 0, i32 7
  %100 = load ptr, ptr %99, align 8, !tbaa !25
  %101 = load i32, ptr %4, align 4, !tbaa !26
  %102 = sext i32 %101 to i64
  %103 = getelementptr inbounds %struct.pdo_column_data, ptr %100, i64 %102
  %104 = getelementptr inbounds nuw %struct.pdo_column_data, ptr %103, i32 0, i32 0
  %105 = load ptr, ptr %104, align 8, !tbaa !37
  %106 = call ptr @zend_hash_find_ptr(ptr noundef %97, ptr noundef %105)
  store ptr %106, ptr %7, align 8, !tbaa !41
  %107 = icmp ne ptr %106, null
  br i1 %107, label %108, label %113

108:                                              ; preds = %94
  %109 = load i32, ptr %4, align 4, !tbaa !26
  %110 = sext i32 %109 to i64
  %111 = load ptr, ptr %7, align 8, !tbaa !41
  %112 = getelementptr inbounds nuw %struct.pdo_bound_param_data, ptr %111, i32 0, i32 2
  store i64 %110, ptr %112, align 8, !tbaa !43
  br label %113

113:                                              ; preds = %108, %94
  call void @llvm.lifetime.end.p0(i64 8, ptr %7) #14
  br label %114

114:                                              ; preds = %113, %89
  br label %115

115:                                              ; preds = %114
  %116 = load i32, ptr %4, align 4, !tbaa !26
  %117 = add nsw i32 %116, 1
  store i32 %117, ptr %4, align 4, !tbaa !26
  br label %15

118:                                              ; preds = %15
  store i1 true, ptr %2, align 1
  store i32 1, ptr %5, align 4
  br label %119

119:                                              ; preds = %118, %31
  call void @llvm.lifetime.end.p0(i64 4, ptr %4) #14
  %120 = load i1, ptr %2, align 1
  ret i1 %120
}