; Function Attrs: nounwind uwtable
define hidden noundef zeroext i1 @pdo_stmt_describe_columns(ptr noundef initializes((48, 56)) %0) local_unnamed_addr #0 {
  %2 = getelementptr inbounds nuw i8, ptr %0, i64 56
  %3 = load i32, ptr %2, align 8, !tbaa !4
  %4 = sext i32 %3 to i64
  %5 = tail call noalias ptr @_ecalloc(i64 noundef %4, i64 noundef 24) #16
  %6 = getelementptr inbounds nuw i8, ptr %0, i64 48
  store ptr %5, ptr %6, align 8, !tbaa !23
  %7 = load i32, ptr %2, align 8, !tbaa !4
  %8 = icmp slt i32 %7, 1
  br i1 %8, label %._crit_edge, label %.lr.ph

.lr.ph:                                           ; preds = %1
  %9 = getelementptr inbounds nuw i8, ptr %0, i64 112
  %10 = getelementptr inbounds nuw i8, ptr %0, i64 40
  br label %11

11:                                               ; preds = %.lr.ph, %zend_hash_find_ptr.exit.thread
  %indvars.iv = phi i64 [ 0, %.lr.ph ], [ %indvars.iv.next, %zend_hash_find_ptr.exit.thread ]
  %12 = load ptr, ptr %0, align 8, !tbaa !24
  %13 = getelementptr inbounds nuw i8, ptr %12, i64 24
  %14 = load ptr, ptr %13, align 8, !tbaa !25
  %15 = trunc nuw nsw i64 %indvars.iv to i32
  %16 = tail call i32 %14(ptr noundef nonnull %0, i32 noundef %15) #17
  %.not.not.not = icmp ne i32 %16, 0
  br i1 %.not.not.not, label %17, label %._crit_edge

17:                                               ; preds = %11
  %18 = load ptr, ptr %9, align 8, !tbaa !27
  %19 = getelementptr inbounds nuw i8, ptr %18, i64 68
  %20 = load i32, ptr %19, align 4, !tbaa !28
  %21 = getelementptr inbounds nuw i8, ptr %18, i64 72
  %22 = load i32, ptr %21, align 8, !tbaa !34
  %.not32 = icmp eq i32 %20, %22
  %.not33 = icmp eq i32 %22, 0
  %or.cond = or i1 %.not32, %.not33
  br i1 %or.cond, label %zend_string_release.exit, label %23

23:                                               ; preds = %17
  %24 = load ptr, ptr %6, align 8, !tbaa !23
  %25 = getelementptr inbounds nuw %struct.pdo_column_data, ptr %24, i64 %indvars.iv
  %26 = load ptr, ptr %25, align 8, !tbaa !35
  %switch = icmp eq i32 %22, 2
  %27 = getelementptr inbounds nuw i8, ptr %26, i64 4
  br i1 %switch, label %28, label %43

28:                                               ; preds = %23
  %29 = tail call ptr @zend_string_tolower_ex(ptr noundef %26, i1 noundef zeroext false) #17
  %30 = load ptr, ptr %6, align 8, !tbaa !23
  %31 = getelementptr inbounds nuw %struct.pdo_column_data, ptr %30, i64 %indvars.iv
  store ptr %29, ptr %31, align 8, !tbaa !35
  %32 = load i32, ptr %27, align 4, !tbaa !37
  %33 = and i32 %32, 64
  %.not.i = icmp eq i32 %33, 0
  br i1 %.not.i, label %34, label %zend_string_release.exit

34:                                               ; preds = %28
  %35 = load i32, ptr %26, align 4, !tbaa !38
  %36 = icmp ne i32 %35, 0
  tail call void @llvm.assume(i1 %36)
  %37 = add i32 %35, -1
  store i32 %37, ptr %26, align 4, !tbaa !38
  %38 = icmp eq i32 %37, 0
  br i1 %38, label %39, label %zend_string_release.exit

39:                                               ; preds = %34
  %40 = and i32 %32, 128
  %.not5.i = icmp eq i32 %40, 0
  br i1 %.not5.i, label %42, label %41

41:                                               ; preds = %39
  tail call void @free(ptr noundef nonnull %26) #17
  br label %zend_string_release.exit

42:                                               ; preds = %39
  tail call void @_efree(ptr noundef nonnull %26) #17
  br label %zend_string_release.exit

43:                                               ; preds = %23
  %44 = tail call ptr @zend_string_toupper_ex(ptr noundef %26, i1 noundef zeroext false) #17
  %45 = load ptr, ptr %6, align 8, !tbaa !23
  %46 = getelementptr inbounds nuw %struct.pdo_column_data, ptr %45, i64 %indvars.iv
  store ptr %44, ptr %46, align 8, !tbaa !35
  %47 = load i32, ptr %27, align 4, !tbaa !37
  %48 = and i32 %47, 64
  %.not.i36 = icmp eq i32 %48, 0
  br i1 %.not.i36, label %49, label %zend_string_release.exit

49:                                               ; preds = %43
  %50 = load i32, ptr %26, align 4, !tbaa !38
  %51 = icmp ne i32 %50, 0
  tail call void @llvm.assume(i1 %51)
  %52 = add i32 %50, -1
  store i32 %52, ptr %26, align 4, !tbaa !38
  %53 = icmp eq i32 %52, 0
  br i1 %53, label %54, label %zend_string_release.exit

54:                                               ; preds = %49
  %55 = and i32 %47, 128
  %.not5.i37 = icmp eq i32 %55, 0
  br i1 %.not5.i37, label %57, label %56

56:                                               ; preds = %54
  tail call void @free(ptr noundef nonnull %26) #17
  br label %zend_string_release.exit

57:                                               ; preds = %54
  tail call void @_efree(ptr noundef nonnull %26) #17
  br label %zend_string_release.exit

zend_string_release.exit:                         ; preds = %57, %56, %49, %43, %42, %41, %34, %28, %17
  %58 = load ptr, ptr %10, align 8, !tbaa !39
  %.not34 = icmp eq ptr %58, null
  br i1 %.not34, label %zend_hash_find_ptr.exit.thread, label %59

59:                                               ; preds = %zend_string_release.exit
  %60 = load ptr, ptr %6, align 8, !tbaa !23
  %61 = getelementptr inbounds nuw %struct.pdo_column_data, ptr %60, i64 %indvars.iv
  %62 = load ptr, ptr %61, align 8, !tbaa !35
  %63 = tail call ptr @zend_hash_find(ptr noundef nonnull %58, ptr noundef %62) #17
  %.not.i39 = icmp eq ptr %63, null
  br i1 %.not.i39, label %zend_hash_find_ptr.exit.thread, label %64

64:                                               ; preds = %59
  %65 = load ptr, ptr %63, align 8, !tbaa !37, !nonnull !40, !noundef !40
  %66 = getelementptr inbounds nuw i8, ptr %65, i64 32
  store i64 %indvars.iv, ptr %66, align 8, !tbaa !41
  br label %zend_hash_find_ptr.exit.thread

zend_hash_find_ptr.exit.thread:                   ; preds = %59, %64, %zend_string_release.exit
  %indvars.iv.next = add nuw nsw i64 %indvars.iv, 1
  %67 = load i32, ptr %2, align 8, !tbaa !4
  %68 = sext i32 %67 to i64
  %.not45 = icmp slt i64 %indvars.iv.next, %68
  br i1 %.not45, label %11, label %._crit_edge

._crit_edge:                                      ; preds = %11, %zend_hash_find_ptr.exit.thread, %1
  %.lcssa = phi i1 [ true, %1 ], [ %.not.not.not, %zend_hash_find_ptr.exit.thread ], [ %.not.not.not, %11 ]
  ret i1 %.lcssa
}